; ModuleID = '31/1004.c'
source_filename = "31/1004.c"
target datalayout = "e-m:e-p270:32:32-p271:32:32-p272:64:64-i64:64-f80:128-n8:16:32:64-S128"
target triple = "x86_64-pc-linux-gnu"

%struct.Inform = type { [30 x i8], [30 x i8], [2 x i8], [4 x i8], [10 x i8], [20 x i8], %struct.Inform* }

@n = common dso_local global i32 0, align 4
@.str = private unnamed_addr constant [13 x i8] c"%s%s%s%s%s%s\00", align 1
@.str.1 = private unnamed_addr constant [4 x i8] c"end\00", align 1
@.str.2 = private unnamed_addr constant [3 x i8] c"%s\00", align 1
@.str.3 = private unnamed_addr constant [11 x i8] c"%s%s%s%s%s\00", align 1
@.str.4 = private unnamed_addr constant [19 x i8] c"%s %s %s %s %s %s\0A\00", align 1

; Function Attrs: noinline nounwind uwtable
define dso_local %struct.Inform* @creat() #0 {
  %1 = alloca %struct.Inform*, align 8
  %2 = alloca %struct.Inform*, align 8
  %3 = alloca %struct.Inform*, align 8
  store %struct.Inform* null, %struct.Inform** %1, align 8
  %4 = call noalias i8* @malloc(i64 100) #4
  %5 = bitcast i8* %4 to %struct.Inform*
  store %struct.Inform* %5, %struct.Inform** %3, align 8
  store %struct.Inform* %5, %struct.Inform** %2, align 8
  store i32 0, i32* @n, align 4
  %6 = load %struct.Inform*, %struct.Inform** %2, align 8
  %7 = getelementptr inbounds %struct.Inform, %struct.Inform* %6, i32 0, i32 0
  %8 = load %struct.Inform*, %struct.Inform** %2, align 8
  %9 = getelementptr inbounds %struct.Inform, %struct.Inform* %8, i32 0, i32 1
  %10 = load %struct.Inform*, %struct.Inform** %2, align 8
  %11 = getelementptr inbounds %struct.Inform, %struct.Inform* %10, i32 0, i32 2
  %12 = load %struct.Inform*, %struct.Inform** %2, align 8
  %13 = getelementptr inbounds %struct.Inform, %struct.Inform* %12, i32 0, i32 3
  %14 = load %struct.Inform*, %struct.Inform** %2, align 8
  %15 = getelementptr inbounds %struct.Inform, %struct.Inform* %14, i32 0, i32 4
  %16 = load %struct.Inform*, %struct.Inform** %2, align 8
  %17 = getelementptr inbounds %struct.Inform, %struct.Inform* %16, i32 0, i32 5
  %18 = call i32 (i8*, ...) @__isoc99_scanf(i8* getelementptr inbounds ([13 x i8], [13 x i8]* @.str, i64 0, i64 0), [30 x i8]* %7, [30 x i8]* %9, [2 x i8]* %11, [4 x i8]* %13, [10 x i8]* %15, [20 x i8]* %17)
  br label %19

19:                                               ; preds = %60, %0
  %20 = load %struct.Inform*, %struct.Inform** %2, align 8
  %21 = getelementptr inbounds %struct.Inform, %struct.Inform* %20, i32 0, i32 0
  %22 = getelementptr inbounds [30 x i8], [30 x i8]* %21, i64 0, i64 0
  %23 = call i32 @strcmp(i8* %22, i8* getelementptr inbounds ([4 x i8], [4 x i8]* @.str.1, i64 0, i64 0)) #5
  %24 = icmp ne i32 %23, 0
  br i1 %24, label %25, label %61

25:                                               ; preds = %19
  %26 = load i32, i32* @n, align 4
  %27 = add nsw i32 %26, 1
  store i32 %27, i32* @n, align 4
  %28 = load i32, i32* @n, align 4
  %29 = icmp eq i32 %28, 1
  br i1 %29, label %30, label %32

30:                                               ; preds = %25
  %31 = load %struct.Inform*, %struct.Inform** %2, align 8
  store %struct.Inform* %31, %struct.Inform** %1, align 8
  br label %36

32:                                               ; preds = %25
  %33 = load %struct.Inform*, %struct.Inform** %2, align 8
  %34 = load %struct.Inform*, %struct.Inform** %3, align 8
  %35 = getelementptr inbounds %struct.Inform, %struct.Inform* %34, i32 0, i32 6
  store %struct.Inform* %33, %struct.Inform** %35, align 8
  br label %36

36:                                               ; preds = %32, %30
  %37 = load %struct.Inform*, %struct.Inform** %2, align 8
  store %struct.Inform* %37, %struct.Inform** %3, align 8
  %38 = call noalias i8* @malloc(i64 100) #4
  %39 = bitcast i8* %38 to %struct.Inform*
  store %struct.Inform* %39, %struct.Inform** %2, align 8
  %40 = load %struct.Inform*, %struct.Inform** %2, align 8
  %41 = getelementptr inbounds %struct.Inform, %struct.Inform* %40, i32 0, i32 0
  %42 = call i32 (i8*, ...) @__isoc99_scanf(i8* getelementptr inbounds ([3 x i8], [3 x i8]* @.str.2, i64 0, i64 0), [30 x i8]* %41)
  %43 = load %struct.Inform*, %struct.Inform** %2, align 8
  %44 = getelementptr inbounds %struct.Inform, %struct.Inform* %43, i32 0, i32 0
  %45 = getelementptr inbounds [30 x i8], [30 x i8]* %44, i64 0, i64 0
  %46 = call i32 @strcmp(i8* %45, i8* getelementptr inbounds ([4 x i8], [4 x i8]* @.str.1, i64 0, i64 0)) #5
  %47 = icmp ne i32 %46, 0
  br i1 %47, label %48, label %60

48:                                               ; preds = %36
  %49 = load %struct.Inform*, %struct.Inform** %2, align 8
  %50 = getelementptr inbounds %struct.Inform, %struct.Inform* %49, i32 0, i32 1
  %51 = load %struct.Inform*, %struct.Inform** %2, align 8
  %52 = getelementptr inbounds %struct.Inform, %struct.Inform* %51, i32 0, i32 2
  %53 = load %struct.Inform*, %struct.Inform** %2, align 8
  %54 = getelementptr inbounds %struct.Inform, %struct.Inform* %53, i32 0, i32 3
  %55 = load %struct.Inform*, %struct.Inform** %2, align 8
  %56 = getelementptr inbounds %struct.Inform, %struct.Inform* %55, i32 0, i32 4
  %57 = load %struct.Inform*, %struct.Inform** %2, align 8
  %58 = getelementptr inbounds %struct.Inform, %struct.Inform* %57, i32 0, i32 5
  %59 = call i32 (i8*, ...) @__isoc99_scanf(i8* getelementptr inbounds ([11 x i8], [11 x i8]* @.str.3, i64 0, i64 0), [30 x i8]* %50, [2 x i8]* %52, [4 x i8]* %54, [10 x i8]* %56, [20 x i8]* %58)
  br label %60

60:                                               ; preds = %48, %36
  br label %19

61:                                               ; preds = %19
  %62 = load %struct.Inform*, %struct.Inform** %3, align 8
  %63 = getelementptr inbounds %struct.Inform, %struct.Inform* %62, i32 0, i32 6
  store %struct.Inform* null, %struct.Inform** %63, align 8
  %64 = load %struct.Inform*, %struct.Inform** %1, align 8
  ret %struct.Inform* %64
}

; Function Attrs: nounwind
declare dso_local noalias i8* @malloc(i64) #1

declare dso_local i32 @__isoc99_scanf(i8*, ...) #2

; Function Attrs: nounwind readonly
declare dso_local i32 @strcmp(i8*, i8*) #3

; Function Attrs: noinline nounwind uwtable
define dso_local void @print(%struct.Inform* %0) #0 {
  %2 = alloca %struct.Inform*, align 8
  %3 = alloca %struct.Inform*, align 8
  store %struct.Inform* %0, %struct.Inform** %2, align 8
  %4 = load %struct.Inform*, %struct.Inform** %2, align 8
  store %struct.Inform* %4, %struct.Inform** %3, align 8
  br label %5

5:                                                ; preds = %8, %1
  %6 = load %struct.Inform*, %struct.Inform** %3, align 8
  %7 = icmp ne %struct.Inform* %6, null
  br i1 %7, label %8, label %31

8:                                                ; preds = %5
  %9 = load %struct.Inform*, %struct.Inform** %3, align 8
  %10 = getelementptr inbounds %struct.Inform, %struct.Inform* %9, i32 0, i32 0
  %11 = getelementptr inbounds [30 x i8], [30 x i8]* %10, i64 0, i64 0
  %12 = load %struct.Inform*, %struct.Inform** %3, align 8
  %13 = getelementptr inbounds %struct.Inform, %struct.Inform* %12, i32 0, i32 1
  %14 = getelementptr inbounds [30 x i8], [30 x i8]* %13, i64 0, i64 0
  %15 = load %struct.Inform*, %struct.Inform** %3, align 8
  %16 = getelementptr inbounds %struct.Inform, %struct.Inform* %15, i32 0, i32 2
  %17 = getelementptr inbounds [2 x i8], [2 x i8]* %16, i64 0, i64 0
  %18 = load %struct.Inform*, %struct.Inform** %3, align 8
  %19 = getelementptr inbounds %struct.Inform, %struct.Inform* %18, i32 0, i32 3
  %20 = getelementptr inbounds [4 x i8], [4 x i8]* %19, i64 0, i64 0
  %21 = load %struct.Inform*, %struct.Inform** %3, align 8
  %22 = getelementptr inbounds %struct.Inform, %struct.Inform* %21, i32 0, i32 4
  %23 = getelementptr inbounds [10 x i8], [10 x i8]* %22, i64 0, i64 0
  %24 = load %struct.Inform*, %struct.Inform** %3, align 8
  %25 = getelementptr inbounds %struct.Inform, %struct.Inform* %24, i32 0, i32 5
  %26 = getelementptr inbounds [20 x i8], [20 x i8]* %25, i64 0, i64 0
  %27 = call i32 (i8*, ...) @printf(i8* getelementptr inbounds ([19 x i8], [19 x i8]* @.str.4, i64 0, i64 0), i8* %11, i8* %14, i8* %17, i8* %20, i8* %23, i8* %26)
  %28 = load %struct.Inform*, %struct.Inform** %3, align 8
  %29 = getelementptr inbounds %struct.Inform, %struct.Inform* %28, i32 0, i32 6
  %30 = load %struct.Inform*, %struct.Inform** %29, align 8
  store %struct.Inform* %30, %struct.Inform** %3, align 8
  br label %5

31:                                               ; preds = %5
  ret void
}

declare dso_local i32 @printf(i8*, ...) #2

; Function Attrs: noinline nounwind uwtable
define dso_local %struct.Inform* @invert(%struct.Inform* %0) #0 {
  %2 = alloca %struct.Inform*, align 8
  %3 = alloca %struct.Inform*, align 8
  %4 = alloca %struct.Inform*, align 8
  store %struct.Inform* %0, %struct.Inform** %2, align 8
  %5 = load %struct.Inform*, %struct.Inform** %2, align 8
  %6 = getelementptr inbounds %struct.Inform, %struct.Inform* %5, i32 0, i32 6
  %7 = load %struct.Inform*, %struct.Inform** %6, align 8
  store %struct.Inform* %7, %struct.Inform** %3, align 8
  %8 = load %struct.Inform*, %struct.Inform** %3, align 8
  %9 = getelementptr inbounds %struct.Inform, %struct.Inform* %8, i32 0, i32 6
  %10 = load %struct.Inform*, %struct.Inform** %9, align 8
  store %struct.Inform* %10, %struct.Inform** %4, align 8
  %11 = load %struct.Inform*, %struct.Inform** %2, align 8
  %12 = getelementptr inbounds %struct.Inform, %struct.Inform* %11, i32 0, i32 6
  store %struct.Inform* null, %struct.Inform** %12, align 8
  br label %13

13:                                               ; preds = %16, %1
  %14 = load %struct.Inform*, %struct.Inform** %4, align 8
  %15 = icmp ne %struct.Inform* %14, null
  br i1 %15, label %16, label %28

16:                                               ; preds = %13
  %17 = load %struct.Inform*, %struct.Inform** %2, align 8
  %18 = load %struct.Inform*, %struct.Inform** %3, align 8
  %19 = getelementptr inbounds %struct.Inform, %struct.Inform* %18, i32 0, i32 6
  store %struct.Inform* %17, %struct.Inform** %19, align 8
  %20 = load %struct.Inform*, %struct.Inform** %3, align 8
  store %struct.Inform* %20, %struct.Inform** %2, align 8
  %21 = load %struct.Inform*, %struct.Inform** %4, align 8
  store %struct.Inform* %21, %struct.Inform** %3, align 8
  %22 = load %struct.Inform*, %struct.Inform** %4, align 8
  %23 = getelementptr inbounds %struct.Inform, %struct.Inform* %22, i32 0, i32 6
  %24 = load %struct.Inform*, %struct.Inform** %23, align 8
  store %struct.Inform* %24, %struct.Inform** %4, align 8
  %25 = load %struct.Inform*, %struct.Inform** %2, align 8
  %26 = load %struct.Inform*, %struct.Inform** %3, align 8
  %27 = getelementptr inbounds %struct.Inform, %struct.Inform* %26, i32 0, i32 6
  store %struct.Inform* %25, %struct.Inform** %27, align 8
  br label %13

28:                                               ; preds = %13
  %29 = load %struct.Inform*, %struct.Inform** %2, align 8
  %30 = load %struct.Inform*, %struct.Inform** %3, align 8
  %31 = getelementptr inbounds %struct.Inform, %struct.Inform* %30, i32 0, i32 6
  store %struct.Inform* %29, %struct.Inform** %31, align 8
  %32 = load %struct.Inform*, %struct.Inform** %3, align 8
  ret %struct.Inform* %32
}

; Function Attrs: noinline nounwind uwtable
define dso_local i32 @main() #0 {
  %1 = alloca i32, align 4
  %2 = alloca %struct.Inform*, align 8
  store i32 0, i32* %1, align 4
  %3 = call %struct.Inform* @creat()
  store %struct.Inform* %3, %struct.Inform** %2, align 8
  %4 = load %struct.Inform*, %struct.Inform** %2, align 8
  %5 = call %struct.Inform* @invert(%struct.Inform* %4)
  store %struct.Inform* %5, %struct.Inform** %2, align 8
  %6 = load %struct.Inform*, %struct.Inform** %2, align 8
  call void @print(%struct.Inform* %6)
  ret i32 0
}


!llvm.module.flags = !{!0}
!llvm.ident = !{!1}

!0 = !{i32 1, !"wchar_size", i32 4}
!1 = !{!"clang version 10.0.0-4ubuntu1 "}
